target datalayout = "e-m:e-p270:32:32-p271:32:32-p272:64:64-i64:64-i128:128-f80:128-n8:16:32:64-S128"
target triple = "x86_64-pc-linux-gnu"

%struct.PlanState = type { i32, ptr, ptr, ptr, ptr, ptr, ptr, ptr, ptr, ptr, ptr, ptr, ptr, ptr, ptr, ptr, ptr, ptr, i8, ptr, ptr, ptr, ptr, ptr, i8, i8, i8, i8, i8, i8, i8, i8 }
%struct.BitmapHeapScanState = type { %struct.ScanState, ptr, ptr, i32, %struct.BitmapHeapScanInstrumentation, %struct.TBMIterator, i32, i32, i32, i8, ptr, ptr, i8, i32, i32 }
%struct.ScanState = type { %struct.PlanState, ptr, ptr, ptr }
%struct.BitmapHeapScanInstrumentation = type { i64, i64 }
%struct.TBMIterator = type { i8, %union.anon }
%union.anon = type { ptr }
%struct.ExprContext = type { i32, ptr, ptr, ptr, ptr, ptr, ptr, ptr, ptr, ptr, i64, i8, i64, i8, ptr, ptr, ptr, ptr }
%struct.ExprState = type { i32, i8, i8, i64, ptr, ptr, ptr, ptr, ptr, i32, i32, ptr, ptr, ptr, ptr, ptr, ptr, ptr }

@CurrentMemoryContext = external global ptr, align 8

; Function Attrs: inlinehint nounwind uwtable
define internal ptr @MemoryContextSwitchTo(ptr noundef %0) #2 {
  %2 = alloca ptr, align 8
  %3 = alloca ptr, align 8
  store ptr %0, ptr %2, align 8
  call void @llvm.lifetime.start.p0(i64 8, ptr %3) #8
  %4 = load ptr, ptr @CurrentMemoryContext, align 8
  store ptr %4, ptr %3, align 8
  %5 = load ptr, ptr %2, align 8
  store ptr %5, ptr @CurrentMemoryContext, align 8
  %6 = load ptr, ptr %3, align 8
  call void @llvm.lifetime.end.p0(i64 8, ptr %3) #8
  ret ptr %6
}

; Function Attrs: inlinehint nounwind uwtable
define internal zeroext i1 @DatumGetBool(i64 noundef %0) #2 {
  %2 = alloca i64, align 8
  store i64 %0, ptr %2, align 8
  %3 = load i64, ptr %2, align 8
  %4 = icmp ne i64 %3, 0
  ret i1 %4
}

; Function Attrs: inlinehint nounwind uwtable
define internal i64 @ExecEvalExprSwitchContext(ptr noundef %0, ptr noundef %1, ptr noundef %2) #2 {
  %4 = alloca ptr, align 8
  %5 = alloca ptr, align 8
  %6 = alloca ptr, align 8
  %7 = alloca i64, align 8
  %8 = alloca ptr, align 8
  store ptr %0, ptr %4, align 8
  store ptr %1, ptr %5, align 8
  store ptr %2, ptr %6, align 8
  call void @llvm.lifetime.start.p0(i64 8, ptr %7) #8
  call void @llvm.lifetime.start.p0(i64 8, ptr %8) #8
  %9 = load ptr, ptr %5, align 8
  %10 = getelementptr inbounds nuw %struct.ExprContext, ptr %9, i32 0, i32 5
  %11 = load ptr, ptr %10, align 8
  %12 = call ptr @MemoryContextSwitchTo(ptr noundef %11)
  store ptr %12, ptr %8, align 8
  %13 = load ptr, ptr %4, align 8
  %14 = getelementptr inbounds nuw %struct.ExprState, ptr %13, i32 0, i32 6
  %15 = load ptr, ptr %14, align 8
  %16 = load ptr, ptr %4, align 8
  %17 = load ptr, ptr %5, align 8
  %18 = load ptr, ptr %6, align 8
  %19 = call i64 %15(ptr noundef %16, ptr noundef %17, ptr noundef %18)
  store i64 %19, ptr %7, align 8
  %20 = load ptr, ptr %8, align 8
  %21 = call ptr @MemoryContextSwitchTo(ptr noundef %20)
  %22 = load i64, ptr %7, align 8
  call void @llvm.lifetime.end.p0(i64 8, ptr %8) #8
  call void @llvm.lifetime.end.p0(i64 8, ptr %7) #8
  ret i64 %22
}

; Function Attrs: inlinehint nounwind uwtable
define internal zeroext i1 @ExecQual(ptr noundef %0, ptr noundef %1) #2 {
  %3 = alloca i1, align 1
  %4 = alloca ptr, align 8
  %5 = alloca ptr, align 8
  %6 = alloca i64, align 8
  %7 = alloca i8, align 1
  %8 = alloca i32, align 4
  store ptr %0, ptr %4, align 8
  store ptr %1, ptr %5, align 8
  call void @llvm.lifetime.start.p0(i64 8, ptr %6) #8
  call void @llvm.lifetime.start.p0(i64 1, ptr %7) #8
  %9 = load ptr, ptr %4, align 8
  %10 = icmp eq ptr %9, null
  br i1 %10, label %11, label %12

11:                                               ; preds = %2
  store i1 true, ptr %3, align 1
  store i32 1, ptr %8, align 4
  br label %18

12:                                               ; preds = %2
  %13 = load ptr, ptr %4, align 8
  %14 = load ptr, ptr %5, align 8
  %15 = call i64 @ExecEvalExprSwitchContext(ptr noundef %13, ptr noundef %14, ptr noundef %7)
  store i64 %15, ptr %6, align 8
  %16 = load i64, ptr %6, align 8
  %17 = call zeroext i1 @DatumGetBool(i64 noundef %16)
  store i1 %17, ptr %3, align 1
  store i32 1, ptr %8, align 4
  br label %18

18:                                               ; preds = %12, %11
  call void @llvm.lifetime.end.p0(i64 1, ptr %7) #8
  call void @llvm.lifetime.end.p0(i64 8, ptr %6) #8
  %19 = load i1, ptr %3, align 1
  ret i1 %19
}

; Function Attrs: inlinehint nounwind uwtable
define internal zeroext i1 @ExecQualAndReset(ptr noundef %0, ptr noundef %1) #2 {
  %3 = alloca ptr, align 8
  %4 = alloca ptr, align 8
  %5 = alloca i8, align 1
  store ptr %0, ptr %3, align 8
  store ptr %1, ptr %4, align 8
  call void @llvm.lifetime.start.p0(i64 1, ptr %5) #8
  %6 = load ptr, ptr %3, align 8
  %7 = load ptr, ptr %4, align 8
  %8 = call zeroext i1 @ExecQual(ptr noundef %6, ptr noundef %7)
  %9 = zext i1 %8 to i8
  store i8 %9, ptr %5, align 1
  %10 = load ptr, ptr %4, align 8
  %11 = getelementptr inbounds nuw %struct.ExprContext, ptr %10, i32 0, i32 5
  %12 = load ptr, ptr %11, align 8
  call void @MemoryContextReset(ptr noundef %12)
  %13 = load i8, ptr %5, align 1, !range !5, !noundef !6
  %14 = trunc i8 %13 to i1
  call void @llvm.lifetime.end.p0(i64 1, ptr %5) #8
  ret i1 %14
}

; Function Attrs: nounwind uwtable
define internal zeroext i1 @BitmapHeapRecheck(ptr noundef %0, ptr noundef %1) #0 {
  %3 = alloca ptr, align 8
  %4 = alloca ptr, align 8
  %5 = alloca ptr, align 8
  store ptr %0, ptr %3, align 8
  store ptr %1, ptr %4, align 8
  call void @llvm.lifetime.start.p0(i64 8, ptr %5) #8
  %6 = load ptr, ptr %3, align 8
  %7 = getelementptr inbounds nuw %struct.BitmapHeapScanState, ptr %6, i32 0, i32 0
  %8 = getelementptr inbounds nuw %struct.ScanState, ptr %7, i32 0, i32 0
  %9 = getelementptr inbounds nuw %struct.PlanState, ptr %8, i32 0, i32 16
  %10 = load ptr, ptr %9, align 8
  store ptr %10, ptr %5, align 8
  %11 = load ptr, ptr %4, align 8
  %12 = load ptr, ptr %5, align 8
  %13 = getelementptr inbounds nuw %struct.ExprContext, ptr %12, i32 0, i32 1
  store ptr %11, ptr %13, align 8
  %14 = load ptr, ptr %3, align 8
  %15 = getelementptr inbounds nuw %struct.BitmapHeapScanState, ptr %14, i32 0, i32 1
  %16 = load ptr, ptr %15, align 8
  %17 = load ptr, ptr %5, align 8
  %18 = call zeroext i1 @ExecQualAndReset(ptr noundef %16, ptr noundef %17)
  call void @llvm.lifetime.end.p0(i64 8, ptr %5) #8
  ret i1 %18
}