; Function Attrs: nounwind uwtable
define internal zeroext i1 @BitmapHeapRecheck(ptr noundef readonly captures(none) %0, ptr noundef %1) #0 {
  %3 = alloca i8, align 1
  %4 = getelementptr inbounds nuw i8, ptr %0, i64 128
  %5 = load ptr, ptr %4, align 8
  %6 = getelementptr inbounds nuw i8, ptr %5, i64 8
  store ptr %1, ptr %6, align 8
  %7 = getelementptr inbounds nuw i8, ptr %0, i64 224
  %8 = load ptr, ptr %7, align 8
  call void @llvm.lifetime.start.p0(i64 1, ptr nonnull %3) #7
  %9 = icmp eq ptr %8, null
  br i1 %9, label %ExecQualAndReset.exit, label %10

10:                                               ; preds = %2
  %11 = getelementptr inbounds nuw i8, ptr %5, i64 40
  %12 = load ptr, ptr %11, align 8
  %13 = load ptr, ptr @CurrentMemoryContext, align 8
  store ptr %12, ptr @CurrentMemoryContext, align 8
  %14 = getelementptr inbounds nuw i8, ptr %8, i64 32
  %15 = load ptr, ptr %14, align 8
  %16 = call i64 %15(ptr noundef nonnull %8, ptr noundef nonnull %5, ptr noundef nonnull %3) #7
  store ptr %13, ptr @CurrentMemoryContext, align 8
  %17 = icmp ne i64 %16, 0
  br label %ExecQualAndReset.exit

ExecQualAndReset.exit:                            ; preds = %2, %10
  %.0.i.i = phi i1 [ %17, %10 ], [ true, %2 ]
  call void @llvm.lifetime.end.p0(i64 1, ptr nonnull %3) #7
  %18 = getelementptr inbounds nuw i8, ptr %5, i64 40
  %19 = load ptr, ptr %18, align 8
  call void @MemoryContextReset(ptr noundef %19) #7
  ret i1 %.0.i.i
}